target datalayout = "e-m:e-p270:32:32-p271:32:32-p272:64:64-i64:64-i128:128-f80:128-n8:16:32:64-S128"
target triple = "x86_64-pc-linux-gnu"

%class.b3AlignedObjectArray = type <{ [4 x i8], i32, i32, [4 x i8], ptr, i8, [7 x i8] }>
%class.b3Vector3 = type { %union.anon }
%union.anon = type { [4 x float] }

; Function Attrs: inlinehint mustprogress nounwind uwtable
define linkonce_odr dso_local noundef ptr @_ZNK9b3Vector3cvPKfEv(ptr noundef nonnull align 16 dereferenceable(16) %0) #3 comdat align 2 {
  %2 = alloca ptr, align 8
  store ptr %0, ptr %2, align 8, !tbaa !9
  %3 = load ptr, ptr %2, align 8
  %4 = getelementptr inbounds nuw %class.b3Vector3, ptr %3, i32 0, i32 0
  %5 = getelementptr inbounds [4 x float], ptr %4, i64 0, i64 0
  ret ptr %5
}

; Function Attrs: inlinehint mustprogress nounwind uwtable
define linkonce_odr dso_local noundef float @_ZNK9b3Vector33dotERKS_(ptr noundef nonnull align 16 dereferenceable(16) %0, ptr noundef nonnull align 16 dereferenceable(16) %1) #3 comdat align 2 {
  %3 = alloca ptr, align 8
  %4 = alloca ptr, align 8
  store ptr %0, ptr %3, align 8, !tbaa !9
  store ptr %1, ptr %4, align 8, !tbaa !9
  %5 = load ptr, ptr %3, align 8
  %6 = getelementptr inbounds nuw %class.b3Vector3, ptr %5, i32 0, i32 0
  %7 = getelementptr inbounds [4 x float], ptr %6, i64 0, i64 0
  %8 = load float, ptr %7, align 16, !tbaa !22
  %9 = load ptr, ptr %4, align 8, !tbaa !9
  %10 = getelementptr inbounds nuw %class.b3Vector3, ptr %9, i32 0, i32 0
  %11 = getelementptr inbounds [4 x float], ptr %10, i64 0, i64 0
  %12 = load float, ptr %11, align 16, !tbaa !22
  %13 = getelementptr inbounds nuw %class.b3Vector3, ptr %5, i32 0, i32 0
  %14 = getelementptr inbounds [4 x float], ptr %13, i64 0, i64 1
  %15 = load float, ptr %14, align 4, !tbaa !22
  %16 = load ptr, ptr %4, align 8, !tbaa !9
  %17 = getelementptr inbounds nuw %class.b3Vector3, ptr %16, i32 0, i32 0
  %18 = getelementptr inbounds [4 x float], ptr %17, i64 0, i64 1
  %19 = load float, ptr %18, align 4, !tbaa !22
  %20 = fmul float %15, %19
  %21 = call float @llvm.fmuladd.f32(float %8, float %12, float %20)
  %22 = getelementptr inbounds nuw %class.b3Vector3, ptr %5, i32 0, i32 0
  %23 = getelementptr inbounds [4 x float], ptr %22, i64 0, i64 2
  %24 = load float, ptr %23, align 8, !tbaa !22
  %25 = load ptr, ptr %4, align 8, !tbaa !9
  %26 = getelementptr inbounds nuw %class.b3Vector3, ptr %25, i32 0, i32 0
  %27 = getelementptr inbounds [4 x float], ptr %26, i64 0, i64 2
  %28 = load float, ptr %27, align 8, !tbaa !22
  %29 = call float @llvm.fmuladd.f32(float %24, float %28, float %21)
  ret float %29
}

; Function Attrs: inlinehint mustprogress nounwind uwtable
define linkonce_odr dso_local noundef nonnull align 16 dereferenceable(16) ptr @_ZNK20b3AlignedObjectArrayI9b3Vector3EixEi(ptr noundef nonnull align 8 dereferenceable(25) %0, i32 noundef %1) #3 comdat align 2 {
  %3 = alloca ptr, align 8
  %4 = alloca i32, align 4
  store ptr %0, ptr %3, align 8, !tbaa !4
  store i32 %1, ptr %4, align 4, !tbaa !13
  %5 = load ptr, ptr %3, align 8
  %6 = getelementptr inbounds nuw %class.b3AlignedObjectArray, ptr %5, i32 0, i32 4
  %7 = load ptr, ptr %6, align 8, !tbaa !21
  %8 = load i32, ptr %4, align 4, !tbaa !13
  %9 = sext i32 %8 to i64
  %10 = getelementptr inbounds %class.b3Vector3, ptr %7, i64 %9
  ret ptr %10
}

; Function Attrs: inlinehint mustprogress nounwind uwtable
define linkonce_odr dso_local noundef i32 @_ZNK20b3AlignedObjectArrayI9b3Vector3E4sizeEv(ptr noundef nonnull align 8 dereferenceable(25) %0) #3 comdat align 2 {
  %2 = alloca ptr, align 8
  store ptr %0, ptr %2, align 8, !tbaa !4
  %3 = load ptr, ptr %2, align 8
  %4 = getelementptr inbounds nuw %class.b3AlignedObjectArray, ptr %3, i32 0, i32 1
  %5 = load i32, ptr %4, align 4, !tbaa !17
  ret i32 %5
}

; Function Attrs: mustprogress uwtable
define dso_local noundef zeroext i1 @_ZN14b3GeometryUtil22areVerticesBehindPlaneERK9b3Vector3RK20b3AlignedObjectArrayIS0_Ef(ptr noundef nonnull align 16 dereferenceable(16) %0, ptr noundef nonnull align 8 dereferenceable(25) %1, float noundef %2) #1 align 2 {
  %4 = alloca i1, align 1
  %5 = alloca ptr, align 8
  %6 = alloca ptr, align 8
  %7 = alloca float, align 4
  %8 = alloca i32, align 4
  %9 = alloca i32, align 4
  %10 = alloca i32, align 4
  %11 = alloca ptr, align 8
  %12 = alloca float, align 4
  store ptr %0, ptr %5, align 8, !tbaa !9
  store ptr %1, ptr %6, align 8, !tbaa !4
  store float %2, ptr %7, align 4, !tbaa !11
  call void @llvm.lifetime.start.p0(i64 4, ptr %8) #11
  %13 = load ptr, ptr %6, align 8, !tbaa !4
  %14 = call noundef i32 @_ZNK20b3AlignedObjectArrayI9b3Vector3E4sizeEv(ptr noundef nonnull align 8 dereferenceable(25) %13)
  store i32 %14, ptr %8, align 4, !tbaa !13
  call void @llvm.lifetime.start.p0(i64 4, ptr %9) #11
  store i32 0, ptr %9, align 4, !tbaa !13
  br label %15

15:                                               ; preds = %41, %3
  %16 = load i32, ptr %9, align 4, !tbaa !13
  %17 = load i32, ptr %8, align 4, !tbaa !13
  %18 = icmp slt i32 %16, %17
  br i1 %18, label %20, label %19

19:                                               ; preds = %15
  store i32 2, ptr %10, align 4
  br label %44

20:                                               ; preds = %15
  call void @llvm.lifetime.start.p0(i64 8, ptr %11) #11
  %21 = load ptr, ptr %6, align 8, !tbaa !4
  %22 = load i32, ptr %9, align 4, !tbaa !13
  %23 = call noundef nonnull align 16 dereferenceable(16) ptr @_ZNK20b3AlignedObjectArrayI9b3Vector3EixEi(ptr noundef nonnull align 8 dereferenceable(25) %21, i32 noundef %22)
  store ptr %23, ptr %11, align 8, !tbaa !9
  call void @llvm.lifetime.start.p0(i64 4, ptr %12) #11
  %24 = load ptr, ptr %5, align 8, !tbaa !9
  %25 = load ptr, ptr %11, align 8, !tbaa !9
  %26 = call noundef float @_ZNK9b3Vector33dotERKS_(ptr noundef nonnull align 16 dereferenceable(16) %24, ptr noundef nonnull align 16 dereferenceable(16) %25)
  %27 = load ptr, ptr %5, align 8, !tbaa !9
  %28 = call noundef ptr @_ZNK9b3Vector3cvPKfEv(ptr noundef nonnull align 16 dereferenceable(16) %27)
  %29 = getelementptr inbounds float, ptr %28, i64 3
  %30 = load float, ptr %29, align 4, !tbaa !11
  %31 = fadd float %26, %30
  %32 = load float, ptr %7, align 4, !tbaa !11
  %33 = fsub float %31, %32
  store float %33, ptr %12, align 4, !tbaa !11
  %34 = load float, ptr %12, align 4, !tbaa !11
  %35 = fcmp ogt float %34, 0.000000e+00
  br i1 %35, label %36, label %37

36:                                               ; preds = %20
  store i1 false, ptr %4, align 1
  store i32 1, ptr %10, align 4
  br label %38

37:                                               ; preds = %20
  store i32 0, ptr %10, align 4
  br label %38

38:                                               ; preds = %37, %36
  call void @llvm.lifetime.end.p0(i64 4, ptr %12) #11
  call void @llvm.lifetime.end.p0(i64 8, ptr %11) #11
  %39 = load i32, ptr %10, align 4
  switch i32 %39, label %44 [
    i32 0, label %40
  ]

40:                                               ; preds = %38
  br label %41

41:                                               ; preds = %40
  %42 = load i32, ptr %9, align 4, !tbaa !13
  %43 = add nsw i32 %42, 1
  store i32 %43, ptr %9, align 4, !tbaa !13
  br label %15, !llvm.loop !23

44:                                               ; preds = %38, %19
  call void @llvm.lifetime.end.p0(i64 4, ptr %9) #11
  %45 = load i32, ptr %10, align 4
  switch i32 %45, label %47 [
    i32 2, label %46
  ]

46:                                               ; preds = %44
  store i1 true, ptr %4, align 1
  store i32 1, ptr %10, align 4
  br label %47

47:                                               ; preds = %46, %44
  call void @llvm.lifetime.end.p0(i64 4, ptr %8) #11
  %48 = load i1, ptr %4, align 1
  ret i1 %48
}