; Function Attrs: mustprogress nofree norecurse nosync nounwind willreturn memory(read, inaccessiblemem: none) uwtable
define dso_local noundef zeroext i1 @_ZN14b3GeometryUtil22areVerticesBehindPlaneERK9b3Vector3RK20b3AlignedObjectArrayIS0_Ef(ptr noundef nonnull readonly align 16 captures(none) dereferenceable(16) %0, ptr noundef nonnull readonly align 8 captures(none) dereferenceable(25) %1, float noundef %2) local_unnamed_addr #1 align 2 {
  %4 = getelementptr inbounds nuw i8, ptr %1, i64 4
  %5 = load i32, ptr %4, align 4, !tbaa !4
  %.not17 = icmp slt i32 %5, 1
  br i1 %.not17, label %.critedge, label %.lr.ph

.lr.ph:                                           ; preds = %3
  %6 = getelementptr inbounds nuw i8, ptr %1, i64 16
  %7 = load ptr, ptr %6, align 8, !tbaa !13
  %8 = load float, ptr %0, align 16, !tbaa !14
  %9 = getelementptr inbounds nuw i8, ptr %0, i64 4
  %10 = load float, ptr %9, align 4, !tbaa !14
  %11 = getelementptr inbounds nuw i8, ptr %0, i64 8
  %12 = load float, ptr %11, align 8, !tbaa !14
  %13 = getelementptr inbounds nuw i8, ptr %0, i64 12
  %14 = load float, ptr %13, align 4, !tbaa !15
  %wide.trip.count = zext nneg i32 %5 to i64
  br label %15

15:                                               ; preds = %15, %.lr.ph
  %indvars.iv = phi i64 [ 0, %.lr.ph ], [ %indvars.iv.next, %15 ]
  %16 = getelementptr inbounds nuw %class.b3Vector3, ptr %7, i64 %indvars.iv
  %17 = load float, ptr %16, align 16, !tbaa !14
  %18 = getelementptr inbounds nuw i8, ptr %16, i64 4
  %19 = load float, ptr %18, align 4, !tbaa !14
  %20 = fmul float %10, %19
  %21 = tail call float @llvm.fmuladd.f32(float %8, float %17, float %20)
  %22 = getelementptr inbounds nuw i8, ptr %16, i64 8
  %23 = load float, ptr %22, align 8, !tbaa !14
  %24 = tail call noundef float @llvm.fmuladd.f32(float %12, float %23, float %21)
  %25 = fadd float %24, %14
  %26 = fcmp ule float %25, %2
  %indvars.iv.next = add nuw nsw i64 %indvars.iv, 1
  %exitcond.not = icmp ne i64 %indvars.iv.next, %wide.trip.count
  %or.cond.not = select i1 %26, i1 %exitcond.not, i1 false
  br i1 %or.cond.not, label %15, label %.critedge, !llvm.loop !19

.critedge:                                        ; preds = %15, %3
  %.not.lcssa = phi i1 [ true, %3 ], [ %26, %15 ]
  ret i1 %.not.lcssa
}